
code/blink.o:     file format elf32-littleriscv


Disassembly of section .text:

00000000 <main>:
   0:	fe010113          	addi	sp,sp,-32
   4:	00812e23          	sw	s0,28(sp)
   8:	02010413          	addi	s0,sp,32
   c:	ffc00793          	li	a5,-4
  10:	fef42223          	sw	a5,-28(s0)
  14:	ff800793          	li	a5,-8
  18:	fef42023          	sw	a5,-32(s0)
  1c:	fe042623          	sw	zero,-20(s0)
  20:	fe0405a3          	sb	zero,-21(s0)

00000024 <.L4>:
  24:	fe042783          	lw	a5,-32(s0)
  28:	0007a703          	lw	a4,0(a5)
  2c:	fec42783          	lw	a5,-20(s0)
  30:	40f70733          	sub	a4,a4,a5
  34:	25800793          	li	a5,600
  38:	fee7f6e3          	bgeu	a5,a4,24 <.L4>
  3c:	fe042783          	lw	a5,-32(s0)
  40:	0007a783          	lw	a5,0(a5)
  44:	fef42623          	sw	a5,-20(s0)
  48:	feb44703          	lbu	a4,-21(s0)
  4c:	01f00793          	li	a5,31
  50:	00e7f863          	bgeu	a5,a4,60 <.L3>
  54:	fe0405a3          	sb	zero,-21(s0)
  58:	fe442783          	lw	a5,-28(s0)
  5c:	0007a023          	sw	zero,0(a5)

00000060 <.L3>:
  60:	fe442783          	lw	a5,-28(s0)
  64:	0007a783          	lw	a5,0(a5)
  68:	feb44703          	lbu	a4,-21(s0)
  6c:	0ff00693          	li	a3,255
  70:	00e69733          	sll	a4,a3,a4
  74:	00e78733          	add	a4,a5,a4
  78:	fe442783          	lw	a5,-28(s0)
  7c:	00e7a023          	sw	a4,0(a5)
  80:	feb44783          	lbu	a5,-21(s0)
  84:	00878793          	addi	a5,a5,8
  88:	fef405a3          	sb	a5,-21(s0)
  8c:	f99ff06f          	j	24 <.L4>
