
code/code.o:     file format elf32-littleriscv


Disassembly of section .text:

00000000 <main-0x4>:
   0:	7ff00113          	li	sp,2047

00000004 <main>:
   4:	fb010113          	addi	sp,sp,-80
   8:	04812623          	sw	s0,76(sp)
   c:	05010413          	addi	s0,sp,80
  10:	fff00793          	li	a5,-1
  14:	fef42423          	sw	a5,-24(s0)
  18:	ffe00793          	li	a5,-2
  1c:	fef42223          	sw	a5,-28(s0)
  20:	ffd00793          	li	a5,-3
  24:	fef42023          	sw	a5,-32(s0)
  28:	ffc00793          	li	a5,-4
  2c:	fcf42e23          	sw	a5,-36(s0)
  30:	fe842783          	lw	a5,-24(s0)
  34:	fcf42c23          	sw	a5,-40(s0)
  38:	fe842783          	lw	a5,-24(s0)
  3c:	faf42e23          	sw	a5,-68(s0)
  40:	fe442783          	lw	a5,-28(s0)
  44:	fcf42023          	sw	a5,-64(s0)
  48:	fe042783          	lw	a5,-32(s0)
  4c:	fcf42223          	sw	a5,-60(s0)
  50:	fdc42783          	lw	a5,-36(s0)
  54:	fcf42423          	sw	a5,-56(s0)
  58:	ff400793          	li	a5,-12
  5c:	fcf42a23          	sw	a5,-44(s0)
  60:	00100793          	li	a5,1
  64:	fcf42823          	sw	a5,-48(s0)
  68:	fe042623          	sw	zero,-20(s0)
  6c:	fc042623          	sw	zero,-52(s0)

00000070 <.L3>:
  70:	fd442783          	lw	a5,-44(s0)
  74:	0007a703          	lw	a4,0(a5)
  78:	fec42783          	lw	a5,-20(s0)
  7c:	40f70733          	sub	a4,a4,a5
  80:	fd042783          	lw	a5,-48(s0)
  84:	fee7f6e3          	bgeu	a5,a4,70 <.L3>
  88:	fd442783          	lw	a5,-44(s0)
  8c:	0007a783          	lw	a5,0(a5)
  90:	fef42623          	sw	a5,-20(s0)
  94:	fd842783          	lw	a5,-40(s0)
  98:	0007c783          	lbu	a5,0(a5)
  9c:	03c78793          	addi	a5,a5,60
  a0:	0ff7f713          	zext.b	a4,a5
  a4:	fd842783          	lw	a5,-40(s0)
  a8:	00e78023          	sb	a4,0(a5)
  ac:	fc5ff06f          	j	70 <.L3>
